; Function Attrs: mustprogress nofree norecurse nosync nounwind memory(readwrite, inaccessiblemem: none) uwtable
define hidden void @_ZN7datalog15bitvector_table11remove_factEPKm(ptr nocapture noundef nonnull readonly align 8 dereferenceable(80) %this, ptr nocapture noundef readonly %fact) unnamed_addr #6 align 2 {
entry:
  %m_num_cols.i = getelementptr inbounds i8, ptr %this, i64 56
  %0 = load i32, ptr %m_num_cols.i, align 8
  %cmp5.not.i = icmp eq i32 %0, 0
  br i1 %cmp5.not.i, label %_ZNK7datalog15bitvector_table11fact2offsetEPKm.exit, label %for.body.lr.ph.i

for.body.lr.ph.i:                                 ; preds = %entry
  %m_shift.i = getelementptr inbounds i8, ptr %this, i64 64
  %1 = load ptr, ptr %m_shift.i, align 8
  %wide.trip.count.i = zext i32 %0 to i64
  br label %for.body.i

for.body.i:                                       ; preds = %for.body.i, %for.body.lr.ph.i
  %indvars.iv.i = phi i64 [ 0, %for.body.lr.ph.i ], [ %indvars.iv.next.i, %for.body.i ]
  %result.06.i = phi i32 [ 0, %for.body.lr.ph.i ], [ %add.i, %for.body.i ]
  %arrayidx.i = getelementptr inbounds i64, ptr %fact, i64 %indvars.iv.i
  %2 = load i64, ptr %arrayidx.i, align 8
  %conv.i = trunc i64 %2 to i32
  %arrayidx.i.i = getelementptr inbounds i32, ptr %1, i64 %indvars.iv.i
  %3 = load i32, ptr %arrayidx.i.i, align 4
  %shl.i = shl i32 %conv.i, %3
  %add.i = add i32 %shl.i, %result.06.i
  %indvars.iv.next.i = add nuw nsw i64 %indvars.iv.i, 1
  %exitcond.not.i = icmp eq i64 %indvars.iv.next.i, %wide.trip.count.i
  br i1 %exitcond.not.i, label %_ZNK7datalog15bitvector_table11fact2offsetEPKm.exit, label %for.body.i, !llvm.loop !17

_ZNK7datalog15bitvector_table11fact2offsetEPKm.exit: ; preds = %for.body.i, %entry
  %result.0.lcssa.i = phi i32 [ 0, %entry ], [ %add.i, %for.body.i ]
  %rem.i.i = and i32 %result.0.lcssa.i, 31
  %shl.i.i = shl nuw i32 1, %rem.i.i
  %not.i = xor i32 %shl.i.i, -1
  %m_data.i.i = getelementptr inbounds i8, ptr %this, i64 48
  %4 = load ptr, ptr %m_data.i.i, align 8
  %div1.i.i = lshr i32 %result.0.lcssa.i, 5
  %idxprom.i.i = zext nneg i32 %div1.i.i to i64
  %arrayidx.i.i1 = getelementptr inbounds i32, ptr %4, i64 %idxprom.i.i
  %5 = load i32, ptr %arrayidx.i.i1, align 4
  %and.i = and i32 %5, %not.i
  store i32 %and.i, ptr %arrayidx.i.i1, align 4
  ret void
}